Certificate:
    Data:
        Version: 3 (0x2)
        Serial Number: 2 (0x2)
    Signature Algorithm: sha256WithRSAEncryption
        Issuer: C=CN, ST=BJ, O=Uplusware, OU=heaphttpd, CN=localhost
        Validity
            Not Before: Aug 25 07:05:57 2017 GMT
            Not After : Aug 23 07:05:57 2027 GMT
        Subject: C=CN, ST=BJ, O=Uplusware, OU=heaphttpd, CN=127.0.0.1
        Subject Public Key Info:
            Public Key Algorithm: rsaEncryption
                Public-Key: (1024 bit)
                Modulus:
                    00:d8:bc:9c:6a:a7:f8:a8:38:39:35:15:77:04:25:
                    69:d3:c1:22:ab:d5:01:4f:c6:ea:4c:63:34:4c:f8:
                    b9:fb:f1:be:ca:e9:85:13:98:7d:d8:8c:39:9c:ea:
                    02:2d:8b:9a:be:d8:e4:b5:56:c7:10:31:09:8f:97:
                    82:71:f7:c0:58:55:db:7e:fc:aa:af:d4:ab:b0:4c:
                    2a:c3:62:1d:44:0a:98:ca:67:ed:08:a8:cb:5a:66:
                    fb:7a:33:7a:ac:5d:1f:df:f7:19:a1:43:30:78:39:
                    2c:5c:dd:4b:06:22:7f:1c:71:4b:68:70:b5:29:07:
                    40:df:02:dd:ad:b7:c1:fe:65
                Exponent: 65537 (0x10001)
        X509v3 extensions:
            X509v3 Basic Constraints: 
                CA:FALSE
            Netscape Comment: 
                OpenSSL Generated Certificate
            X509v3 Subject Key Identifier: 
                A7:C6:05:C6:07:AB:48:90:CC:E3:C4:70:BC:33:A1:FA:21:EA:26:24
            X509v3 Authority Key Identifier: 
                keyid:6E:C1:85:27:9C:74:43:FC:79:2B:1D:D8:68:56:5A:0A:18:10:26:57

    Signature Algorithm: sha256WithRSAEncryption
         9c:0d:ba:a4:6d:9e:47:4e:d9:df:14:7e:6f:de:6a:60:af:71:
         e3:3f:a0:98:4a:cc:d0:8a:c9:67:23:9b:68:b7:cb:c3:0c:f1:
         cf:c0:9a:b4:41:03:02:32:86:1e:be:1a:58:df:89:5a:9b:1f:
         35:4d:0e:0d:b7:48:57:1f:70:3c:db:2f:ad:cf:c4:a2:0c:1d:
         ca:5b:3a:10:2a:b5:2c:be:2c:28:5c:2b:91:90:ec:70:fc:c3:
         9f:c1:e7:8a:a5:a4:f9:68:a7:18:41:b4:72:cb:ea:b6:bb:eb:
         99:82:07:af:4b:d4:af:aa:7a:8f:59:e0:26:be:d2:72:20:fe:
         e6:67:22:6a:77:b7:06:9c:8a:02:57:f1:4b:f7:7d:44:64:34:
         97:59:61:6a:49:de:87:0a:b2:3b:95:c6:21:56:cb:2a:c8:58:
         a2:fa:8d:c6:c0:c9:09:d9:7f:b9:75:c4:17:ec:83:60:a6:93:
         8c:3d:0c:6c:a0:57:b8:ca:a6:0a:5f:95:3c:5a:df:31:59:0b:
         95:74:da:fd:3d:9b:34:d0:ea:93:13:b3:f3:5c:e8:05:4d:48:
         29:d0:b6:a2:ff:33:e0:3a:fe:bf:82:97:05:10:e0:8b:3d:fa:
         c6:75:8a:0b:7f:af:89:bd:df:1f:08:12:90:df:a8:d0:3a:2f:
         5b:79:22:6d
-----BEGIN CERTIFICATE-----
MIIDHjCCAgagAwIBAgIBAjANBgkqhkiG9w0BAQsFADBWMQswCQYDVQQGEwJDTjEL
MAkGA1UECAwCQkoxEjAQBgNVBAoMCVVwbHVzd2FyZTESMBAGA1UECwwJaGVhcGh0
dHBkMRIwEAYDVQQDDAlsb2NhbGhvc3QwHhcNMTcwODI1MDcwNTU3WhcNMjcwODIz
MDcwNTU3WjBWMQswCQYDVQQGEwJDTjELMAkGA1UECAwCQkoxEjAQBgNVBAoMCVVw
bHVzd2FyZTESMBAGA1UECwwJaGVhcGh0dHBkMRIwEAYDVQQDDAkxMjcuMC4wLjEw
gZ8wDQYJKoZIhvcNAQEBBQADgY0AMIGJAoGBANi8nGqn+Kg4OTUVdwQladPBIqvV
AU/G6kxjNEz4ufvxvsrphROYfdiMOZzqAi2Lmr7Y5LVWxxAxCY+XgnH3wFhV2378
qq/Uq7BMKsNiHUQKmMpn7Qioy1pm+3ozeqxdH9/3GaFDMHg5LFzdSwYifxxxS2hw
tSkHQN8C3a23wf5lAgMBAAGjezB5MAkGA1UdEwQCMAAwLAYJYIZIAYb4QgENBB8W
HU9wZW5TU0wgR2VuZXJhdGVkIENlcnRpZmljYXRlMB0GA1UdDgQWBBSnxgXGB6tI
kMzjxHC8M6H6IeomJDAfBgNVHSMEGDAWgBRuwYUnnHRD/HkrHdhoVloKGBAmVzAN
BgkqhkiG9w0BAQsFAAOCAQEAnA26pG2eR07Z3xR+b95qYK9x4z+gmErM0IrJZyOb
aLfLwwzxz8CatEEDAjKGHr4aWN+JWpsfNU0ODbdIVx9wPNsvrc/Eogwdyls6ECq1
LL4sKFwrkZDscPzDn8HniqWk+WinGEG0csvqtrvrmYIHr0vUr6p6j1ngJr7SciD+
5mciane3BpyKAlfxS/d9RGQ0l1lhaknehwqyO5XGIVbLKshYovqNxsDJCdl/uXXE
F+yDYKaTjD0MbKBXuMqmCl+VPFrfMVkLlXTa/T2bNNDqkxOz81zoBU1IKdC2ov8z
4Dr+v4KXBRDgiz36xnWKC3+vib3fHwgSkN+o0DovW3kibQ==
-----END CERTIFICATE-----
