Certificate:
    Data:
        Version: 3 (0x2)
        Serial Number: 1 (0x1)
    Signature Algorithm: sha256WithRSAEncryption
        Issuer: C=CN, ST=BJ, O=Uplusware, OU=heaphttpd, CN=localhost
        Validity
            Not Before: May 31 02:06:17 2016 GMT
            Not After : May 29 02:06:17 2026 GMT
        Subject: C=CN, ST=BJ, O=Uplusware, OU=heaphttpd, CN=localhost
        Subject Public Key Info:
            Public Key Algorithm: rsaEncryption
                Public-Key: (1024 bit)
                Modulus:
                    00:bb:0f:cc:ab:7e:95:b3:a5:4c:af:5c:21:24:96:
                    75:eb:64:e4:6f:61:b4:52:16:58:f8:05:62:2d:db:
                    46:2f:71:80:57:c7:da:40:62:96:59:ab:4b:6f:44:
                    b3:15:cf:e3:f8:40:1d:12:29:7d:01:61:a6:69:13:
                    94:5a:1d:0c:b2:8d:a9:ff:4d:77:df:98:35:f2:2d:
                    b4:3b:20:07:33:42:3d:41:90:60:40:3a:d9:c9:ad:
                    25:01:43:fc:31:87:aa:ed:c9:cb:11:eb:f5:09:a3:
                    c1:94:65:86:36:3b:4f:46:8f:34:9a:00:60:20:b0:
                    8f:29:19:c7:bb:6c:f9:ca:c9
                Exponent: 65537 (0x10001)
        X509v3 extensions:
            X509v3 Basic Constraints: 
                CA:FALSE
            Netscape Comment: 
                OpenSSL Generated Certificate
            X509v3 Subject Key Identifier: 
                D4:AB:4B:F3:B6:F0:1D:AC:98:8C:E1:6C:3E:AF:92:C9:D4:4D:C7:F0
            X509v3 Authority Key Identifier: 
                keyid:20:2E:3D:C6:C5:10:50:F8:5A:70:D9:36:75:AD:67:01:C4:C4:3F:C7

    Signature Algorithm: sha256WithRSAEncryption
         0c:d9:75:01:33:03:62:68:9a:37:27:0d:48:44:ee:be:bf:25:
         a7:0f:bd:42:d5:db:5d:d3:3a:22:42:75:79:10:61:39:2f:08:
         39:23:a7:33:66:4a:d4:2a:09:b0:21:34:4b:a5:47:69:bc:6c:
         b7:e4:25:70:12:1c:d9:8c:e5:d4:3c:3e:f0:86:cf:18:fe:cf:
         93:9e:4e:73:dd:75:60:97:ff:07:97:62:6c:06:b7:3b:20:e5:
         d7:01:bd:8c:7c:ee:ef:11:b5:19:74:27:25:f3:bc:bb:45:cb:
         bc:23:2a:46:f3:0c:36:b7:bf:b2:bd:95:5b:4d:6a:23:8c:c5:
         1e:47:69:76:89:b4:44:95:3b:b8:8f:5f:2b:9c:cb:6b:e7:5f:
         98:5d:aa:54:70:d0:7f:39:b1:cb:3b:eb:e8:32:de:86:9f:18:
         3c:28:f5:96:24:ab:6e:02:96:3c:2e:ba:71:e5:26:9b:85:c1:
         f8:bb:fc:0b:e9:ad:e2:c1:dd:ea:d6:e1:e4:f6:41:30:5d:3a:
         ac:84:6e:3b:34:83:85:cd:93:72:e2:97:26:5b:c2:6f:84:26:
         10:0a:b4:e1:da:0e:c6:57:e8:c3:29:d2:e8:6d:42:21:56:13:
         9b:d2:02:14:35:a6:b1:20:8b:62:ad:26:a5:ce:64:59:c3:d0:
         49:0d:c9:f2
-----BEGIN CERTIFICATE-----
MIIDHDCCAgSgAwIBAgIBATANBgkqhkiG9w0BAQsFADBVMQswCQYDVQQGEwJDTjEL
MAkGA1UECAwCQkoxEjAQBgNVBAoMCVVwbHVzd2FyZTERMA8GA1UECwwIbml1aHR0
cGQxEjAQBgNVBAMMCWxvY2FsaG9zdDAeFw0xNjA1MzEwMjA2MTdaFw0yNjA1Mjkw
MjA2MTdaMFUxCzAJBgNVBAYTAkNOMQswCQYDVQQIDAJCSjESMBAGA1UECgwJVXBs
dXN3YXJlMREwDwYDVQQLDAhuaXVodHRwZDESMBAGA1UEAwwJbG9jYWxob3N0MIGf
MA0GCSqGSIb3DQEBAQUAA4GNADCBiQKBgQC7D8yrfpWzpUyvXCEklnXrZORvYbRS
Flj4BWIt20YvcYBXx9pAYpZZq0tvRLMVz+P4QB0SKX0BYaZpE5RaHQyyjan/TXff
mDXyLbQ7IAczQj1BkGBAOtnJrSUBQ/wxh6rtycsR6/UJo8GUZYY2O09GjzSaAGAg
sI8pGce7bPnKyQIDAQABo3sweTAJBgNVHRMEAjAAMCwGCWCGSAGG+EIBDQQfFh1P
cGVuU1NMIEdlbmVyYXRlZCBDZXJ0aWZpY2F0ZTAdBgNVHQ4EFgQU1KtL87bwHayY
jOFsPq+SydRNx/AwHwYDVR0jBBgwFoAUIC49xsUQUPhacNk2da1nAcTEP8cwDQYJ
KoZIhvcNAQELBQADggEBAAzZdQEzA2JomjcnDUhE7r6/JacPvULV213TOiJCdXkQ
YTkvCDkjpzNmStQqCbAhNEulR2m8bLfkJXASHNmM5dQ8PvCGzxj+z5OeTnPddWCX
/weXYmwGtzsg5dcBvYx87u8RtRl0JyXzvLtFy7wjKkbzDDa3v7K9lVtNaiOMxR5H
aXaJtESVO7iPXyucy2vnX5hdqlRw0H85scs76+gy3oafGDwo9ZYkq24CljwuunHl
JpuFwfi7/AvpreLB3erW4eT2QTBdOqyEbjs0g4XNk3LilyZbwm+EJhAKtOHaDsZX
6MMp0uhtQiFWE5vSAhQ1prEgi2KtJqXOZFnD0EkNyfI=
-----END CERTIFICATE-----
