Certificate:
    Data:
        Version: 3 (0x2)
        Serial Number: 1 (0x1)
    Signature Algorithm: sha256WithRSAEncryption
        Issuer: C=CN, ST=BJ, O=Uplusware, OU=heaphttpd, CN=localhost
        Validity
            Not Before: Aug 25 07:05:54 2017 GMT
            Not After : Aug 23 07:05:54 2027 GMT
        Subject: C=CN, ST=BJ, O=Uplusware, OU=heaphttpd, CN=localhost
        Subject Public Key Info:
            Public Key Algorithm: rsaEncryption
                Public-Key: (1024 bit)
                Modulus:
                    00:be:e4:a8:03:19:eb:23:38:d5:22:21:cd:e6:69:
                    f3:a2:fe:91:3c:d4:40:03:49:60:1e:6d:07:bd:6c:
                    56:96:1b:91:c0:53:dc:7a:80:5c:45:a5:c6:44:1a:
                    96:ac:54:14:7f:11:92:d0:b4:9e:84:64:b4:74:8f:
                    34:36:8f:28:ea:bc:85:ad:47:59:74:9f:8c:d9:58:
                    ba:95:e3:51:3f:4d:2b:39:14:fe:dd:a0:68:6d:c7:
                    c6:61:ca:8e:de:8e:7c:15:52:10:60:57:04:23:fb:
                    b3:34:57:51:91:87:60:0d:99:75:1e:94:22:d1:b4:
                    e1:e6:86:09:ce:fc:34:09:25
                Exponent: 65537 (0x10001)
        X509v3 extensions:
            X509v3 Basic Constraints: 
                CA:FALSE
            Netscape Comment: 
                OpenSSL Generated Certificate
            X509v3 Subject Key Identifier: 
                95:19:CF:F6:4C:AE:35:37:0D:3B:BD:B7:A7:24:28:A7:3E:FF:2B:AA
            X509v3 Authority Key Identifier: 
                keyid:6E:C1:85:27:9C:74:43:FC:79:2B:1D:D8:68:56:5A:0A:18:10:26:57

    Signature Algorithm: sha256WithRSAEncryption
         21:ba:d7:98:5a:fd:1b:ce:12:42:5d:42:81:b8:1e:87:35:d9:
         ef:c3:ff:4a:a0:d3:ec:ed:90:bc:f2:e7:d3:16:14:5e:59:60:
         dc:04:0b:7c:09:fe:ad:65:d4:50:1c:43:77:0b:4f:bf:ec:f0:
         64:64:5c:3e:1c:ab:12:c7:37:13:01:f5:52:c5:d3:17:21:5e:
         ab:7f:39:73:11:17:70:9e:03:b9:26:7f:c3:9e:dd:67:55:b3:
         8a:94:dc:43:63:11:eb:04:63:63:28:0f:84:2c:de:ab:ef:71:
         b2:dc:c0:54:b5:e9:e2:a2:77:04:a9:11:52:ff:4d:93:1b:df:
         7f:05:54:eb:12:a0:70:eb:ae:b6:41:76:2d:7d:58:6f:e7:5e:
         ef:5f:f5:38:7e:3c:39:42:f9:9b:91:28:a3:43:b8:d6:fc:0b:
         5f:02:bd:34:c6:cc:c9:13:90:a6:ea:7a:df:71:98:a7:b7:41:
         6f:77:5a:02:17:63:18:49:60:84:e3:38:cf:92:e2:07:c8:f6:
         a8:a9:fd:14:99:df:2b:89:f2:3c:22:03:4c:d0:7e:77:f8:72:
         29:24:f2:33:da:c2:a2:4a:84:c7:82:a0:79:2a:4e:d4:f8:de:
         1c:df:55:35:db:da:2e:a2:21:81:be:40:42:ef:26:87:a5:77:
         b0:4d:12:66
-----BEGIN CERTIFICATE-----
MIIDHjCCAgagAwIBAgIBATANBgkqhkiG9w0BAQsFADBWMQswCQYDVQQGEwJDTjEL
MAkGA1UECAwCQkoxEjAQBgNVBAoMCVVwbHVzd2FyZTESMBAGA1UECwwJaGVhcGh0
dHBkMRIwEAYDVQQDDAlsb2NhbGhvc3QwHhcNMTcwODI1MDcwNTU0WhcNMjcwODIz
MDcwNTU0WjBWMQswCQYDVQQGEwJDTjELMAkGA1UECAwCQkoxEjAQBgNVBAoMCVVw
bHVzd2FyZTESMBAGA1UECwwJaGVhcGh0dHBkMRIwEAYDVQQDDAlsb2NhbGhvc3Qw
gZ8wDQYJKoZIhvcNAQEBBQADgY0AMIGJAoGBAL7kqAMZ6yM41SIhzeZp86L+kTzU
QANJYB5tB71sVpYbkcBT3HqAXEWlxkQalqxUFH8RktC0noRktHSPNDaPKOq8ha1H
WXSfjNlYupXjUT9NKzkU/t2gaG3HxmHKjt6OfBVSEGBXBCP7szRXUZGHYA2ZdR6U
ItG04eaGCc78NAklAgMBAAGjezB5MAkGA1UdEwQCMAAwLAYJYIZIAYb4QgENBB8W
HU9wZW5TU0wgR2VuZXJhdGVkIENlcnRpZmljYXRlMB0GA1UdDgQWBBSVGc/2TK41
Nw07vbenJCinPv8rqjAfBgNVHSMEGDAWgBRuwYUnnHRD/HkrHdhoVloKGBAmVzAN
BgkqhkiG9w0BAQsFAAOCAQEAIbrXmFr9G84SQl1CgbgehzXZ78P/SqDT7O2QvPLn
0xYUXllg3AQLfAn+rWXUUBxDdwtPv+zwZGRcPhyrEsc3EwH1UsXTFyFeq385cxEX
cJ4DuSZ/w57dZ1WzipTcQ2MR6wRjYygPhCzeq+9xstzAVLXp4qJ3BKkRUv9Nkxvf
fwVU6xKgcOuutkF2LX1Yb+de71/1OH48OUL5m5Eoo0O41vwLXwK9NMbMyROQpup6
33GYp7dBb3daAhdjGElghOM4z5LiB8j2qKn9FJnfK4nyPCIDTNB+d/hyKSTyM9rC
okqEx4KgeSpO1PjeHN9VNdvaLqIhgb5AQu8mh6V3sE0SZg==
-----END CERTIFICATE-----
